Certificate:
    Data:
        Version: 3 (0x2)
        Serial Number: 1 (0x1)
    Signature Algorithm: sha256WithRSAEncryption
        Issuer: C=CN, ST=GuangDong, L=ShenZhen, O=UProject, OU=UProject, CN=UProject-CA
        Validity
            Not Before: Apr 29 16:15:58 2015 GMT
            Not After : Apr 28 16:15:58 2016 GMT
        Subject: C=CN, ST=GuangDong, L=ShenZhen, O=UProject, OU=UProject, CN=UProject-CA
        Subject Public Key Info:
            Public Key Algorithm: rsaEncryption
                Public-Key: (4096 bit)
                Modulus:
                    00:ce:f1:86:98:44:b5:79:7d:0a:ff:cd:aa:9e:c7:
                    e3:b0:16:d0:cb:1e:07:f9:f8:79:ff:0f:29:3b:9c:
                    36:7d:9a:7c:e2:5a:0b:49:92:08:43:0c:4d:38:05:
                    23:f7:09:44:3a:46:6f:fc:3d:f1:3d:ff:aa:d9:29:
                    8a:a6:d5:8a:98:a3:9f:0e:f7:c9:7a:3f:f1:66:a2:
                    9b:39:b4:73:a2:29:4f:6f:3b:c2:56:d0:bb:bb:c7:
                    9c:50:4d:bc:d3:f8:3d:9e:66:1a:05:32:1e:9d:c6:
                    68:a9:51:b1:72:8a:fb:75:8e:16:c7:2d:ce:7e:69:
                    66:2f:72:a9:08:a6:b1:7a:b7:22:ba:33:f6:48:91:
                    ec:24:4c:23:6c:84:41:ee:9a:a9:dc:40:be:e5:1b:
                    5f:2b:07:50:84:33:d2:a0:2b:d5:43:90:0f:05:0c:
                    eb:f5:6e:ac:d2:a8:d8:36:cf:d8:94:72:57:a0:f9:
                    86:63:d9:82:4b:17:c3:27:53:a7:c1:e1:df:8b:2d:
                    0d:d4:96:67:dc:ab:21:32:92:21:12:77:29:e2:b5:
                    8a:60:9c:62:85:81:5a:1b:5b:4f:41:71:a2:cb:a1:
                    1d:7d:48:71:f1:fd:2b:64:ab:5c:55:0f:bd:80:b8:
                    e6:ee:ec:2b:db:8a:b1:40:c7:76:43:bb:f6:4f:d4:
                    63:64:cd:e2:62:e8:3c:06:a1:90:58:76:e6:50:66:
                    7d:2c:e7:a3:9d:59:0d:15:0b:5d:fc:d3:5d:b1:35:
                    66:86:0e:f0:08:68:fa:11:5a:f0:8f:b7:06:65:6c:
                    81:44:c5:e2:ec:c1:c2:3c:eb:91:de:17:fa:f1:26:
                    82:6e:e1:0a:60:42:9f:5d:16:8a:a5:a5:42:3f:6d:
                    20:b1:6f:4b:ad:90:a8:fe:0a:bd:25:de:bd:a0:00:
                    77:09:09:ba:99:17:dc:06:f3:57:63:2b:53:e6:74:
                    e2:c8:99:a8:a8:1c:b7:6f:c0:2f:2f:c9:c6:90:18:
                    4e:a7:94:4a:7b:12:b4:2c:53:24:95:1f:79:f5:4b:
                    2d:3b:97:09:a0:51:a6:85:73:83:dd:8a:ea:4f:5c:
                    03:7d:e3:52:77:9e:38:30:31:2c:d8:2d:35:dd:21:
                    f7:51:61:26:e5:fe:8f:d5:b1:07:2a:9f:15:14:74:
                    56:3d:0d:60:9e:5e:e2:d5:d5:a8:94:08:4e:95:71:
                    e7:d0:6b:a1:8e:0b:59:cd:b7:13:b1:8b:48:97:a2:
                    d7:39:eb:78:86:60:ff:57:e0:c5:1d:fd:3f:1c:c0:
                    5f:ce:51:40:6d:ef:3b:44:7b:97:d4:d5:ee:9a:3f:
                    cb:71:da:c5:44:22:56:47:62:95:e4:0b:bc:ab:cb:
                    34:c4:a1
                Exponent: 65537 (0x10001)
        X509v3 extensions:
            X509v3 Basic Constraints: 
                CA:FALSE
            X509v3 Subject Key Identifier: 
                DD:A7:68:BD:02:D3:D1:9C:15:5A:37:C2:FD:8F:16:13:D6:FB:08:9D
            X509v3 Authority Key Identifier: 
                keyid:DD:A7:68:BD:02:D3:D1:9C:15:5A:37:C2:FD:8F:16:13:D6:FB:08:9D

    Signature Algorithm: sha256WithRSAEncryption
         1f:b9:5d:84:d2:64:84:d8:f6:df:57:c0:d6:b8:43:95:e4:27:
         0b:66:71:4f:96:5e:cd:7d:1e:1d:92:27:a9:37:a0:73:45:ec:
         46:46:c7:63:ef:df:21:90:4d:8f:cf:d2:91:d1:a1:ba:09:6d:
         b0:c5:92:6e:3a:15:36:08:8a:92:05:ba:92:f9:f4:da:55:df:
         c9:d5:6d:5a:18:5b:81:de:65:b9:92:c5:fa:46:da:0d:7a:1c:
         b8:e4:12:6b:05:8e:66:43:32:17:db:6e:53:45:cd:06:34:f2:
         83:78:69:50:be:47:51:c0:e1:6e:80:20:96:31:35:56:0c:33:
         df:f0:70:db:1d:bf:97:be:bf:6a:30:28:95:76:e5:d5:99:be:
         cf:88:26:e6:f9:0c:9e:76:5e:6a:e4:6b:9f:8d:c8:d9:d6:f4:
         e5:3f:f2:3e:12:bb:e8:21:cd:7d:38:7f:bb:86:17:b3:81:9d:
         9b:68:6a:3e:92:bd:0d:7b:e2:b3:96:9a:c2:bf:e1:c4:2f:65:
         39:82:8a:ba:d5:74:eb:11:7a:f9:5b:b5:f8:48:f1:a0:fa:6f:
         70:91:8a:94:d7:f2:a8:3d:68:1a:ea:8c:7d:01:24:46:ae:0a:
         de:5c:38:7b:a4:62:a1:e1:f6:10:75:a4:8e:3b:ce:73:68:2e:
         a8:4a:f2:cc:08:64:a7:3a:c6:8f:40:3c:05:51:c1:61:aa:fd:
         48:9d:66:6f:7f:c4:82:d8:71:cf:05:b0:3b:2d:ac:4a:c3:6e:
         ff:f2:2c:7d:b1:aa:0f:a9:48:72:a3:cf:d0:21:bd:8b:e2:e1:
         76:31:3b:0a:b3:b2:f3:ff:bb:86:fd:b5:55:27:00:bc:d4:b7:
         85:7a:95:ee:7f:e4:7a:f6:d6:9b:15:07:f3:78:22:de:7c:62:
         99:8e:7b:6a:a8:47:1a:be:39:dd:2d:60:8d:4e:b6:57:f3:dc:
         d8:df:6a:5b:8c:92:de:2e:21:aa:f7:0f:34:74:5c:58:2e:a0:
         44:9d:4c:22:f0:fc:83:b3:80:03:33:cf:18:71:75:0c:65:a2:
         d0:b3:59:a5:3a:99:80:9e:64:62:09:07:36:ff:d2:1e:01:46:
         21:26:f1:37:e0:96:82:e3:19:8b:41:2d:0f:74:27:e5:76:db:
         e5:63:ff:13:70:53:2e:7e:35:59:30:27:e7:7e:f8:b4:be:d6:
         2f:44:f0:ec:7b:e1:2a:83:cc:a4:14:b3:1f:ff:1d:a0:e7:a0:
         bb:d7:1e:7d:09:9b:69:57:58:65:c8:0f:96:87:c7:0f:0b:9c:
         02:29:ed:08:bb:1a:e7:c8:30:4b:92:35:4f:87:34:ec:c1:20:
         11:02:97:5c:b0:cf:1c:2a
-----BEGIN CERTIFICATE-----
MIIFqDCCA5CgAwIBAgIBATANBgkqhkiG9w0BAQsFADBwMQswCQYDVQQGEwJDTjES
MBAGA1UECBMJR3VhbmdEb25nMREwDwYDVQQHEwhTaGVuWmhlbjERMA8GA1UEChMI
VVByb2plY3QxETAPBgNVBAsTCFVQcm9qZWN0MRQwEgYDVQQDEwtVUHJvamVjdC1D
QTAeFw0xNTA0MjkxNjE1NThaFw0xNjA0MjgxNjE1NThaMHAxCzAJBgNVBAYTAkNO
MRIwEAYDVQQIEwlHdWFuZ0RvbmcxETAPBgNVBAcTCFNoZW5aaGVuMREwDwYDVQQK
EwhVUHJvamVjdDERMA8GA1UECxMIVVByb2plY3QxFDASBgNVBAMTC1VQcm9qZWN0
LUNBMIICIjANBgkqhkiG9w0BAQEFAAOCAg8AMIICCgKCAgEAzvGGmES1eX0K/82q
nsfjsBbQyx4H+fh5/w8pO5w2fZp84loLSZIIQwxNOAUj9wlEOkZv/D3xPf+q2SmK
ptWKmKOfDvfJej/xZqKbObRzoilPbzvCVtC7u8ecUE280/g9nmYaBTIencZoqVGx
cor7dY4Wxy3OfmlmL3KpCKaxerciujP2SJHsJEwjbIRB7pqp3EC+5RtfKwdQhDPS
oCvVQ5APBQzr9W6s0qjYNs/YlHJXoPmGY9mCSxfDJ1OnweHfiy0N1JZn3KshMpIh
Encp4rWKYJxihYFaG1tPQXGiy6EdfUhx8f0rZKtcVQ+9gLjm7uwr24qxQMd2Q7v2
T9RjZM3iYug8BqGQWHbmUGZ9LOejnVkNFQtd/NNdsTVmhg7wCGj6EVrwj7cGZWyB
RMXi7MHCPOuR3hf68SaCbuEKYEKfXRaKpaVCP20gsW9LrZCo/gq9Jd69oAB3CQm6
mRfcBvNXYytT5nTiyJmoqBy3b8AvL8nGkBhOp5RKexK0LFMklR959UstO5cJoFGm
hXOD3YrqT1wDfeNSd544MDEs2C013SH3UWEm5f6P1bEHKp8VFHRWPQ1gnl7i1dWo
lAhOlXHn0GuhjgtZzbcTsYtIl6LXOet4hmD/V+DFHf0/HMBfzlFAbe87RHuX1NXu
mj/LcdrFRCJWR2KV5Au8q8s0xKECAwEAAaNNMEswCQYDVR0TBAIwADAdBgNVHQ4E
FgQU3adovQLT0ZwVWjfC/Y8WE9b7CJ0wHwYDVR0jBBgwFoAU3adovQLT0ZwVWjfC
/Y8WE9b7CJ0wDQYJKoZIhvcNAQELBQADggIBAB+5XYTSZITY9t9XwNa4Q5XkJwtm
cU+WXs19Hh2SJ6k3oHNF7EZGx2Pv3yGQTY/P0pHRoboJbbDFkm46FTYIipIFupL5
9NpV38nVbVoYW4HeZbmSxfpG2g16HLjkEmsFjmZDMhfbblNFzQY08oN4aVC+R1HA
4W6AIJYxNVYMM9/wcNsdv5e+v2owKJV25dWZvs+IJub5DJ52Xmrka5+NyNnW9OU/
8j4Su+ghzX04f7uGF7OBnZtoaj6SvQ174rOWmsK/4cQvZTmCirrVdOsRevlbtfhI
8aD6b3CRipTX8qg9aBrqjH0BJEauCt5cOHukYqHh9hB1pI47znNoLqhK8swIZKc6
xo9APAVRwWGq/UidZm9/xILYcc8FsDstrErDbv/yLH2xqg+pSHKjz9AhvYvi4XYx
OwqzsvP/u4b9tVUnALzUt4V6le5/5Hr21psVB/N4It58YpmOe2qoRxq+Od0tYI1O
tlfz3NjfaluMkt4uIar3DzR0XFguoESdTCLw/IOzgAMzzxhxdQxlotCzWaU6mYCe
ZGIJBzb/0h4BRiEm8TfgloLjGYtBLQ90J+V22+Vj/xNwUy5+NVkwJ+d++LS+1i9E
8Ox74SqDzKQUsx//HaDnoLvXHn0Jm2lXWGXID5aHxw8LnAIp7Qi7GufIMEuSNU+H
NOzBIBECl1ywzxwq
-----END CERTIFICATE-----
