Certificate:
    Data:
        Version: 3 (0x2)
        Serial Number: 2 (0x2)
    Signature Algorithm: sha256WithRSAEncryption
        Issuer: C=CN, ST=GuangDong, L=ShenZhen, O=UProject, OU=UProject, CN=UProject-CA
        Validity
            Not Before: Apr 29 16:25:16 2015 GMT
            Not After : Apr 28 16:25:16 2016 GMT
        Subject: C=CN, ST=GuangDong, L=ShenZhen, O=UProject, OU=Yunweipai, CN=www.yunweipai.com
        Subject Public Key Info:
            Public Key Algorithm: rsaEncryption
                Public-Key: (2048 bit)
                Modulus:
                    00:ba:81:6c:66:4a:56:6b:60:50:a6:46:cf:d5:3d:
                    84:c8:f9:f4:ad:94:61:6b:65:b9:2b:b0:36:fc:7c:
                    2a:7e:66:ea:ae:84:57:52:47:0b:75:42:50:08:0f:
                    f0:b0:8d:a0:d9:7f:48:0c:4c:8b:45:41:be:9d:21:
                    49:04:4d:85:5d:a8:c7:94:7f:65:e5:f8:47:25:da:
                    a3:f5:1f:d4:a6:08:32:e6:b3:77:db:58:c1:ed:36:
                    dd:11:ac:35:21:ef:65:b5:60:5a:e5:fa:04:4d:a1:
                    23:90:98:de:65:9d:e4:ad:6b:13:ce:d0:96:6d:70:
                    1e:ad:dd:09:31:57:43:1d:a0:21:13:e9:28:5e:d0:
                    42:4d:93:cc:4f:84:f8:b5:ff:64:b9:f0:cc:ab:4c:
                    25:44:40:d9:8d:47:f5:01:c2:b2:c1:16:d7:82:5c:
                    76:71:87:dc:66:0b:97:32:41:bf:76:8f:79:ab:70:
                    31:3a:34:f2:1f:0d:66:93:79:2d:aa:64:9d:45:83:
                    ee:33:f3:b1:96:69:8b:8d:a5:15:7b:10:ea:72:eb:
                    c0:e0:ca:fa:6c:16:3f:6b:71:8b:a0:aa:6b:9d:20:
                    ab:82:e1:eb:62:73:13:16:39:79:e3:37:1e:85:7c:
                    fc:7a:c5:8e:e4:14:ba:52:6a:44:3b:df:d4:0c:41:
                    73:31
                Exponent: 65537 (0x10001)
        X509v3 extensions:
            X509v3 Basic Constraints: 
                CA:FALSE
            X509v3 Subject Key Identifier: 
                9D:A4:E9:7B:5F:74:3C:60:4D:E8:6B:54:2A:F0:68:36:58:9B:F7:85
            X509v3 Authority Key Identifier: 
                keyid:DD:A7:68:BD:02:D3:D1:9C:15:5A:37:C2:FD:8F:16:13:D6:FB:08:9D

    Signature Algorithm: sha256WithRSAEncryption
         12:9e:90:9d:ed:0e:65:3b:94:cc:9f:50:65:c4:90:80:60:6e:
         4e:54:b6:03:42:19:13:26:c0:a5:9e:78:f1:b1:99:52:67:9e:
         c7:e4:e0:62:82:5b:13:71:e4:be:43:65:7a:03:a1:b9:f7:25:
         92:ff:86:ba:23:a7:b3:b4:37:8f:ed:6b:6c:f1:24:86:01:28:
         7b:fa:05:10:12:82:ae:bb:c9:8f:d0:93:91:e9:0c:6b:64:bb:
         42:34:7d:06:b0:cc:3f:90:ed:66:28:47:c6:bb:80:8e:eb:9f:
         99:43:32:ae:e3:51:aa:9e:80:79:ac:5b:0f:35:6d:c8:00:a5:
         08:07:ec:51:9c:e0:a5:38:f4:ad:93:0d:4c:69:a5:5d:83:95:
         21:32:c9:dc:a9:c2:f8:1e:44:8d:61:27:56:1f:cc:d8:39:60:
         c0:99:3b:14:4e:73:c0:4c:d8:8b:18:c1:bf:7a:95:ff:f1:b8:
         90:6b:0f:26:c2:01:d5:81:15:2d:16:d9:59:6d:18:51:35:76:
         af:0b:3a:a0:ac:b1:1b:6f:a1:5d:ba:db:c8:c7:bd:cc:89:19:
         c1:7c:7c:73:97:8a:2d:ed:f5:1a:14:d0:13:52:8f:58:f6:47:
         d6:c3:2d:12:50:53:23:d6:6e:10:57:e9:20:53:68:28:6f:08:
         b4:74:ab:ef:db:5c:5f:72:05:69:a6:5d:74:bd:0e:6c:5a:58:
         54:de:ba:08:2e:ab:f7:a3:20:4d:17:04:d7:8f:ef:c9:2f:89:
         13:9d:a9:b6:7a:9d:60:5e:93:d1:17:84:f1:35:83:ce:82:83:
         57:d5:e5:af:aa:12:89:01:8f:9d:6e:1b:34:be:0c:d7:2b:aa:
         4c:75:0f:cc:0b:2b:88:68:c3:6a:91:f8:31:28:98:e0:9d:ea:
         05:a2:ed:72:ad:78:b4:4a:90:f2:53:4e:66:e7:09:74:88:d6:
         d1:cd:93:46:c3:bc:d8:22:f6:d8:64:a6:b3:de:1e:3d:ec:ef:
         16:90:28:91:38:ec:be:b6:d1:93:6d:8c:00:b2:8e:90:1a:e4:
         90:4c:a9:5c:41:f1:86:80:1c:9a:aa:c7:e2:8d:b4:93:6f:dd:
         a7:95:9d:47:20:fa:cb:e3:af:13:ac:e4:26:8e:43:dc:95:f4:
         8d:4e:60:33:86:b5:34:45:3e:5c:cd:8f:1e:fa:88:81:ba:03:
         11:f3:14:13:78:ad:67:28:f3:89:b3:d0:d1:48:63:47:d9:2d:
         ec:53:6d:11:dd:b2:ff:2c:ea:f6:50:63:e9:f9:c3:a8:69:c8:
         77:b1:c8:e8:10:54:44:c9:af:15:23:38:ea:b1:94:f8:85:58:
         6d:d4:13:e4:74:7d:9e:67
-----BEGIN CERTIFICATE-----
MIIErzCCApegAwIBAgIBAjANBgkqhkiG9w0BAQsFADBwMQswCQYDVQQGEwJDTjES
MBAGA1UECBMJR3VhbmdEb25nMREwDwYDVQQHEwhTaGVuWmhlbjERMA8GA1UEChMI
VVByb2plY3QxETAPBgNVBAsTCFVQcm9qZWN0MRQwEgYDVQQDEwtVUHJvamVjdC1D
QTAeFw0xNTA0MjkxNjI1MTZaFw0xNjA0MjgxNjI1MTZaMHcxCzAJBgNVBAYTAkNO
MRIwEAYDVQQIEwlHdWFuZ0RvbmcxETAPBgNVBAcTCFNoZW5aaGVuMREwDwYDVQQK
EwhVUHJvamVjdDESMBAGA1UECxMJWXVud2VpcGFpMRowGAYDVQQDExF3d3cueXVu
d2VpcGFpLmNvbTCCASIwDQYJKoZIhvcNAQEBBQADggEPADCCAQoCggEBALqBbGZK
VmtgUKZGz9U9hMj59K2UYWtluSuwNvx8Kn5m6q6EV1JHC3VCUAgP8LCNoNl/SAxM
i0VBvp0hSQRNhV2ox5R/ZeX4RyXao/Uf1KYIMuazd9tYwe023RGsNSHvZbVgWuX6
BE2hI5CY3mWd5K1rE87Qlm1wHq3dCTFXQx2gIRPpKF7QQk2TzE+E+LX/ZLnwzKtM
JURA2Y1H9QHCssEW14JcdnGH3GYLlzJBv3aPeatwMTo08h8NZpN5LapknUWD7jPz
sZZpi42lFXsQ6nLrwODK+mwWP2txi6Cqa50gq4Lh62JzExY5eeM3HoV8/HrFjuQU
ulJqRDvf1AxBczECAwEAAaNNMEswCQYDVR0TBAIwADAdBgNVHQ4EFgQUnaTpe190
PGBN6GtUKvBoNlib94UwHwYDVR0jBBgwFoAU3adovQLT0ZwVWjfC/Y8WE9b7CJ0w
DQYJKoZIhvcNAQELBQADggIBABKekJ3tDmU7lMyfUGXEkIBgbk5UtgNCGRMmwKWe
ePGxmVJnnsfk4GKCWxNx5L5DZXoDobn3JZL/hrojp7O0N4/ta2zxJIYBKHv6BRAS
gq67yY/Qk5HpDGtku0I0fQawzD+Q7WYoR8a7gI7rn5lDMq7jUaqegHmsWw81bcgA
pQgH7FGc4KU49K2TDUxppV2DlSEyydypwvgeRI1hJ1YfzNg5YMCZOxROc8BM2IsY
wb96lf/xuJBrDybCAdWBFS0W2VltGFE1dq8LOqCssRtvoV2628jHvcyJGcF8fHOX
ii3t9RoU0BNSj1j2R9bDLRJQUyPWbhBX6SBTaChvCLR0q+/bXF9yBWmmXXS9Dmxa
WFTeugguq/ejIE0XBNeP78kviROdqbZ6nWBek9EXhPE1g86Cg1fV5a+qEokBj51u
GzS+DNcrqkx1D8wLK4how2qR+DEomOCd6gWi7XKteLRKkPJTTmbnCXSI1tHNk0bD
vNgi9thkprPeHj3s7xaQKJE47L620ZNtjACyjpAa5JBMqVxB8YaAHJqqx+KNtJNv
3aeVnUcg+svjrxOs5CaOQ9yV9I1OYDOGtTRFPlzNjx76iIG6AxHzFBN4rWco84mz
0NFIY0fZLexTbRHdsv8s6vZQY+n5w6hpyHexyOgQVETJrxUjOOqxlPiFWG3UE+R0
fZ5n
-----END CERTIFICATE-----
